; Function Attrs: nounwind uwtable
define zeroext range(i8 0, 2) i8 @l_Array_anyMUnsafe_any___at_Lean_Meta_mkPackedPPRodInstance___spec__3(ptr noundef readonly captures(none) %0, i64 noundef %1, i64 noundef %2) local_unnamed_addr #0 {
  %.not27 = icmp eq i64 %1, %2
  br i1 %.not27, label %lean_dec.exit._crit_edge, label %.lr.ph

.lr.ph:                                           ; preds = %3
  %4 = getelementptr inbounds nuw i8, ptr %0, i64 24
  br label %7

5:                                                ; preds = %lean_dec.exit
  %6 = add i64 %.01528, 1
  %.not = icmp eq i64 %6, %2
  br i1 %.not, label %lean_dec.exit._crit_edge, label %7

7:                                                ; preds = %.lr.ph, %5
  %.01528 = phi i64 [ %1, %.lr.ph ], [ %6, %5 ]
  %8 = getelementptr inbounds nuw [0 x ptr], ptr %4, i64 0, i64 %.01528
  %9 = load ptr, ptr %8, align 8, !tbaa !10
  %10 = ptrtoint ptr %9 to i64
  %11 = and i64 %10, 1
  %.not.i20 = icmp eq i64 %11, 0
  br i1 %.not.i20, label %12, label %lean_array_uget.exit

12:                                               ; preds = %7
  %.val.i.i = load i32, ptr %9, align 4, !tbaa !4
  %13 = icmp sgt i32 %.val.i.i, 0
  br i1 %13, label %14, label %16, !prof !9

14:                                               ; preds = %12
  %15 = add nuw i32 %.val.i.i, 1
  store i32 %15, ptr %9, align 4, !tbaa !4
  br label %20

16:                                               ; preds = %12
  %.not.i.i = icmp eq i32 %.val.i.i, 0
  br i1 %.not.i.i, label %20, label %17

17:                                               ; preds = %16
  tail call void @lean_inc_ref_cold(ptr noundef nonnull %9) #4
  br label %20

lean_array_uget.exit:                             ; preds = %7
  %18 = load ptr, ptr @l_Lean_Meta_mkInstPiOfInstForall___closed__6, align 8, !tbaa !10
  %19 = tail call zeroext i8 @l_Lean_Expr_isAppOf(ptr noundef %9, ptr noundef %18) #4
  br label %lean_dec.exit

20:                                               ; preds = %14, %16, %17
  %21 = load ptr, ptr @l_Lean_Meta_mkInstPiOfInstForall___closed__6, align 8, !tbaa !10
  %22 = tail call zeroext i8 @l_Lean_Expr_isAppOf(ptr noundef nonnull %9, ptr noundef %21) #4
  %23 = load i32, ptr %9, align 4, !tbaa !4
  %24 = icmp sgt i32 %23, 1
  br i1 %24, label %25, label %27, !prof !9

25:                                               ; preds = %20
  %26 = add nsw i32 %23, -1
  store i32 %26, ptr %9, align 4, !tbaa !4
  br label %lean_dec.exit

27:                                               ; preds = %20
  %.not.i = icmp eq i32 %23, 0
  br i1 %.not.i, label %lean_dec.exit, label %28

28:                                               ; preds = %27
  tail call void @lean_dec_ref_cold(ptr noundef nonnull %9) #4
  br label %lean_dec.exit

lean_dec.exit:                                    ; preds = %28, %27, %25, %lean_array_uget.exit
  %29 = phi i8 [ %19, %lean_array_uget.exit ], [ %22, %25 ], [ %22, %27 ], [ %22, %28 ]
  %30 = icmp eq i8 %29, 0
  br i1 %30, label %lean_dec.exit._crit_edge, label %5

lean_dec.exit._crit_edge:                         ; preds = %5, %lean_dec.exit, %3
  %.2.ph = phi i8 [ 0, %3 ], [ 1, %lean_dec.exit ], [ 0, %5 ]
  ret i8 %.2.ph
}